; Function Attrs: nounwind uwtable
define ptr @l___private_Init_Data_Int_Linear_0__Int_Linear_gcd(ptr noundef %0, ptr noundef %1) local_unnamed_addr #1 {
  %3 = tail call ptr @l_Int_gcd(ptr noundef %0, ptr noundef %1) #5
  %4 = ptrtoint ptr %3 to i64
  %5 = and i64 %4, 1
  %.not.i = icmp eq i64 %5, 0
  %6 = icmp ult ptr %3, inttoptr (i64 4294967296 to ptr)
  %or.cond.i = or i1 %6, %.not.i
  br i1 %or.cond.i, label %lean_nat_to_int.exit, label %7

7:                                                ; preds = %2
  %8 = lshr i64 %4, 1
  %9 = tail call ptr @lean_big_size_t_to_int(i64 noundef %8) #5
  br label %lean_nat_to_int.exit

lean_nat_to_int.exit:                             ; preds = %2, %7
  %.1.i = phi ptr [ %9, %7 ], [ %3, %2 ]
  ret ptr %.1.i
}